; Function Attrs: mustprogress nofree norecurse nosync nounwind willreturn memory(argmem: read) uwtable
define range(i32 0, 2) i32 @BrotliDecoderHasMoreOutput(ptr noundef readonly captures(none) %0) local_unnamed_addr #11 {
  %2 = getelementptr inbounds nuw i8, ptr %0, i64 128
  %3 = load i32, ptr %2, align 8, !tbaa !38
  %4 = icmp slt i32 %3, 0
  br i1 %4, label %20, label %5

5:                                                ; preds = %1
  %6 = getelementptr inbounds nuw i8, ptr %0, i64 136
  %7 = load ptr, ptr %6, align 8, !tbaa !43
  %.not = icmp eq ptr %7, null
  br i1 %.not, label %20, label %8

8:                                                ; preds = %5
  %.phi.trans.insert.i = getelementptr inbounds nuw i8, ptr %0, i64 88
  %.pre.i = load i32, ptr %.phi.trans.insert.i, align 8, !tbaa !105
  %.phi.trans.insert9.phi.trans.insert.i = getelementptr inbounds nuw i8, ptr %0, i64 100
  %.pre10.pre.i = load i32, ptr %.phi.trans.insert9.phi.trans.insert.i, align 4, !tbaa !103
  %9 = sext i32 %.pre.i to i64
  %10 = getelementptr inbounds nuw i8, ptr %0, i64 424
  %11 = load i64, ptr %10, align 8, !tbaa !112
  %12 = sext i32 %.pre10.pre.i to i64
  %13 = getelementptr inbounds nuw i8, ptr %0, i64 432
  %14 = load i64, ptr %13, align 8, !tbaa !37
  %15 = sub i64 %9, %14
  %16 = mul i64 %11, %12
  %17 = sub i64 0, %16
  %18 = icmp ne i64 %15, %17
  %19 = zext i1 %18 to i32
  br label %20

20:                                               ; preds = %5, %8, %1
  %.0 = phi i32 [ 0, %1 ], [ 0, %5 ], [ %19, %8 ]
  ret i32 %.0
}